; Function Attrs: nofree nosync nounwind memory(readwrite, inaccessiblemem: none) uwtable
define range(i32 0, 2) i32 @Gla_ManTranslate_rec(ptr noundef %0, ptr noundef %1, ptr noundef %2, i32 noundef %3) local_unnamed_addr #11 {
  %5 = getelementptr inbounds nuw i8, ptr %0, i64 616
  %6 = load ptr, ptr %5, align 8, !tbaa !78
  %7 = getelementptr i8, ptr %0, i64 32
  %.val.i = load ptr, ptr %7, align 8, !tbaa !37
  %8 = ptrtoint ptr %1 to i64
  %9 = ptrtoint ptr %.val.i to i64
  %10 = sub i64 %8, %9
  %11 = sdiv exact i64 %10, 12
  %sext.i = shl i64 %11, 32
  %12 = ashr exact i64 %sext.i, 30
  %13 = getelementptr inbounds i8, ptr %6, i64 %12
  %14 = load i32, ptr %13, align 4, !tbaa !22
  %15 = getelementptr inbounds nuw i8, ptr %0, i64 176
  %16 = load i32, ptr %15, align 8, !tbaa !79
  %.not = icmp eq i32 %14, %16
  br i1 %.not, label %43, label %17

17:                                               ; preds = %4
  store i32 %16, ptr %13, align 4, !tbaa !22
  %.val23 = load i64, ptr %1, align 4
  %18 = and i64 %.val23, 2684354559
  %narrow.i.not = icmp eq i64 %18, 2684354559
  br i1 %narrow.i.not, label %43, label %19

19:                                               ; preds = %17
  %20 = and i64 %.val23, 536870911
  %21 = sub nsw i64 0, %20
  %22 = getelementptr inbounds %struct.Gia_Obj_t_, ptr %1, i64 %21
  %23 = tail call i32 @Gla_ManTranslate_rec(ptr noundef nonnull %0, ptr noundef nonnull %22, ptr noundef %2, i32 noundef %3)
  %24 = load i64, ptr %1, align 4
  %25 = lshr i64 %24, 32
  %26 = and i64 %25, 536870911
  %27 = sub nsw i64 0, %26
  %28 = getelementptr inbounds %struct.Gia_Obj_t_, ptr %1, i64 %27
  %29 = tail call i32 @Gla_ManTranslate_rec(ptr noundef nonnull %0, ptr noundef nonnull %28, ptr noundef %2, i32 noundef %3)
  %30 = icmp ne i32 %23, 0
  %31 = icmp ne i32 %29, 0
  %or.cond = select i1 %30, i1 true, i1 %31
  br i1 %or.cond, label %32, label %41

32:                                               ; preds = %19
  %.val = load ptr, ptr %7, align 8, !tbaa !37
  %33 = ptrtoint ptr %.val to i64
  %34 = sub i64 %8, %33
  %35 = sdiv exact i64 %34, 12
  %36 = getelementptr i8, ptr %2, i64 8
  %.val24 = load ptr, ptr %36, align 8, !tbaa !11
  %sext = shl i64 %35, 32
  %37 = ashr exact i64 %sext, 30
  %38 = getelementptr inbounds i8, ptr %.val24, i64 %37
  %39 = load i32, ptr %38, align 4, !tbaa !22
  %40 = add nsw i32 %39, %3
  store i32 %40, ptr %38, align 4, !tbaa !22
  br label %41

41:                                               ; preds = %19, %32
  %42 = zext i1 %or.cond to i32
  br label %43

43:                                               ; preds = %17, %4, %41
  %.0 = phi i32 [ %42, %41 ], [ 1, %4 ], [ 0, %17 ]
  ret i32 %.0
}